target datalayout = "e-m:e-p270:32:32-p271:32:32-p272:64:64-i64:64-i128:128-f80:128-n8:16:32:64-S128"
target triple = "x86_64-pc-linux-gnu"

; Function Attrs: inlinehint nounwind uwtable
define internal i32 @cpu_to_fdt32(i32 noundef %0) #3 {
  %2 = alloca i32, align 4
  store i32 %0, ptr %2, align 4, !tbaa !7
  %3 = getelementptr inbounds i8, ptr %2, i64 0
  %4 = load i8, ptr %3, align 4, !tbaa !14
  %5 = zext i8 %4 to i64
  %6 = shl i64 %5, 24
  %7 = getelementptr inbounds i8, ptr %2, i64 1
  %8 = load i8, ptr %7, align 1, !tbaa !14
  %9 = zext i8 %8 to i64
  %10 = shl i64 %9, 16
  %11 = or i64 %6, %10
  %12 = getelementptr inbounds i8, ptr %2, i64 2
  %13 = load i8, ptr %12, align 2, !tbaa !14
  %14 = zext i8 %13 to i64
  %15 = shl i64 %14, 8
  %16 = or i64 %11, %15
  %17 = getelementptr inbounds i8, ptr %2, i64 3
  %18 = load i8, ptr %17, align 1, !tbaa !14
  %19 = zext i8 %18 to i64
  %20 = or i64 %16, %19
  %21 = trunc i64 %20 to i32
  ret i32 %21
}

; Function Attrs: inlinehint nounwind uwtable
define internal i32 @fdt32_to_cpu(i32 noundef %0) #3 {
  %2 = alloca i32, align 4
  store i32 %0, ptr %2, align 4, !tbaa !7
  %3 = getelementptr inbounds i8, ptr %2, i64 0
  %4 = load i8, ptr %3, align 4, !tbaa !14
  %5 = zext i8 %4 to i64
  %6 = shl i64 %5, 24
  %7 = getelementptr inbounds i8, ptr %2, i64 1
  %8 = load i8, ptr %7, align 1, !tbaa !14
  %9 = zext i8 %8 to i64
  %10 = shl i64 %9, 16
  %11 = or i64 %6, %10
  %12 = getelementptr inbounds i8, ptr %2, i64 2
  %13 = load i8, ptr %12, align 2, !tbaa !14
  %14 = zext i8 %13 to i64
  %15 = shl i64 %14, 8
  %16 = or i64 %11, %15
  %17 = getelementptr inbounds i8, ptr %2, i64 3
  %18 = load i8, ptr %17, align 1, !tbaa !14
  %19 = zext i8 %18 to i64
  %20 = or i64 %16, %19
  %21 = trunc i64 %20 to i32
  ret i32 %21
}

; Function Attrs: nounwind uwtable
define internal i32 @overlay_update_local_node_references(ptr noundef %0, i32 noundef %1, i32 noundef %2, i32 noundef %3) #0 {
  %5 = alloca i32, align 4
  %6 = alloca ptr, align 8
  %7 = alloca i32, align 4
  %8 = alloca i32, align 4
  %9 = alloca i32, align 4
  %10 = alloca i32, align 4
  %11 = alloca i32, align 4
  %12 = alloca i32, align 4
  %13 = alloca ptr, align 8
  %14 = alloca ptr, align 8
  %15 = alloca ptr, align 8
  %16 = alloca i32, align 4
  %17 = alloca i32, align 4
  %18 = alloca i32, align 4
  %19 = alloca i32, align 4
  %20 = alloca i32, align 4
  %21 = alloca i32, align 4
  %22 = alloca ptr, align 8
  %23 = alloca i32, align 4
  store ptr %0, ptr %6, align 8, !tbaa !3
  store i32 %1, ptr %7, align 4, !tbaa !7
  store i32 %2, ptr %8, align 4, !tbaa !7
  store i32 %3, ptr %9, align 4, !tbaa !7
  call void @llvm.lifetime.start.p0(i64 4, ptr %10) #7
  call void @llvm.lifetime.start.p0(i64 4, ptr %11) #7
  call void @llvm.lifetime.start.p0(i64 4, ptr %12) #7
  %24 = load ptr, ptr %6, align 8, !tbaa !3
  %25 = load i32, ptr %8, align 4, !tbaa !7
  %26 = call i32 @fdt_first_property_offset(ptr noundef %24, i32 noundef %25)
  store i32 %26, ptr %10, align 4, !tbaa !7
  br label %27

27:                                               ; preds = %108, %4
  %28 = load i32, ptr %10, align 4, !tbaa !7
  %29 = icmp sge i32 %28, 0
  br i1 %29, label %30, label %112

30:                                               ; preds = %27
  call void @llvm.lifetime.start.p0(i64 8, ptr %13) #7
  call void @llvm.lifetime.start.p0(i64 8, ptr %14) #7
  call void @llvm.lifetime.start.p0(i64 8, ptr %15) #7
  call void @llvm.lifetime.start.p0(i64 4, ptr %16) #7
  call void @llvm.lifetime.start.p0(i64 4, ptr %17) #7
  call void @llvm.lifetime.start.p0(i64 4, ptr %18) #7
  %31 = load ptr, ptr %6, align 8, !tbaa !3
  %32 = load i32, ptr %10, align 4, !tbaa !7
  %33 = call ptr @fdt_getprop_by_offset(ptr noundef %31, i32 noundef %32, ptr noundef %15, ptr noundef %16)
  store ptr %33, ptr %13, align 8, !tbaa !21
  %34 = load ptr, ptr %13, align 8, !tbaa !21
  %35 = icmp ne ptr %34, null
  br i1 %35, label %38, label %36

36:                                               ; preds = %30
  %37 = load i32, ptr %16, align 4, !tbaa !7
  store i32 %37, ptr %5, align 4
  store i32 1, ptr %19, align 4
  br label %105

38:                                               ; preds = %30
  %39 = load i32, ptr %16, align 4, !tbaa !7
  %40 = sext i32 %39 to i64
  %41 = urem i64 %40, 4
  %42 = icmp ne i64 %41, 0
  br i1 %42, label %43, label %44

43:                                               ; preds = %38
  store i32 -16, ptr %5, align 4
  store i32 1, ptr %19, align 4
  br label %105

44:                                               ; preds = %38
  %45 = load ptr, ptr %6, align 8, !tbaa !3
  %46 = load i32, ptr %7, align 4, !tbaa !7
  %47 = load ptr, ptr %15, align 8, !tbaa !12
  %48 = call ptr @fdt_getprop(ptr noundef %45, i32 noundef %46, ptr noundef %47, ptr noundef %17)
  store ptr %48, ptr %14, align 8, !tbaa !12
  %49 = load ptr, ptr %14, align 8, !tbaa !12
  %50 = icmp ne ptr %49, null
  br i1 %50, label %57, label %51

51:                                               ; preds = %44
  %52 = load i32, ptr %17, align 4, !tbaa !7
  %53 = icmp eq i32 %52, -1
  br i1 %53, label %54, label %55

54:                                               ; preds = %51
  store i32 -16, ptr %5, align 4
  store i32 1, ptr %19, align 4
  br label %105

55:                                               ; preds = %51
  %56 = load i32, ptr %17, align 4, !tbaa !7
  store i32 %56, ptr %5, align 4
  store i32 1, ptr %19, align 4
  br label %105

57:                                               ; preds = %44
  store i32 0, ptr %18, align 4, !tbaa !7
  br label %58

58:                                               ; preds = %101, %57
  %59 = load i32, ptr %18, align 4, !tbaa !7
  %60 = sext i32 %59 to i64
  %61 = load i32, ptr %16, align 4, !tbaa !7
  %62 = sext i32 %61 to i64
  %63 = udiv i64 %62, 4
  %64 = icmp ult i64 %60, %63
  br i1 %64, label %65, label %104

65:                                               ; preds = %58
  call void @llvm.lifetime.start.p0(i64 4, ptr %20) #7
  call void @llvm.lifetime.start.p0(i64 4, ptr %21) #7
  %66 = load ptr, ptr %13, align 8, !tbaa !21
  %67 = load i32, ptr %18, align 4, !tbaa !7
  %68 = sext i32 %67 to i64
  %69 = getelementptr inbounds i32, ptr %66, i64 %68
  %70 = load i32, ptr %69, align 4, !tbaa !7
  %71 = call i32 @fdt32_to_cpu(i32 noundef %70)
  store i32 %71, ptr %21, align 4, !tbaa !7
  %72 = load ptr, ptr %14, align 8, !tbaa !12
  %73 = load i32, ptr %21, align 4, !tbaa !7
  %74 = zext i32 %73 to i64
  %75 = getelementptr inbounds nuw i8, ptr %72, i64 %74
  call void @llvm.memcpy.p0.p0.i64(ptr align 4 %20, ptr align 1 %75, i64 4, i1 false)
  %76 = load i32, ptr %20, align 4, !tbaa !7
  %77 = call i32 @fdt32_to_cpu(i32 noundef %76)
  %78 = load i32, ptr %9, align 4, !tbaa !7
  %79 = add i32 %77, %78
  %80 = call i32 @cpu_to_fdt32(i32 noundef %79)
  store i32 %80, ptr %20, align 4, !tbaa !7
  %81 = load ptr, ptr %6, align 8, !tbaa !3
  %82 = load i32, ptr %7, align 4, !tbaa !7
  %83 = load ptr, ptr %15, align 8, !tbaa !12
  %84 = load ptr, ptr %15, align 8, !tbaa !12
  %85 = call i64 @strlen(ptr noundef %84) #8
  %86 = trunc i64 %85 to i32
  %87 = load i32, ptr %21, align 4, !tbaa !7
  %88 = call i32 @fdt_setprop_inplace_namelen_partial(ptr noundef %81, i32 noundef %82, ptr noundef %83, i32 noundef %86, i32 noundef %87, ptr noundef %20, i32 noundef 4)
  store i32 %88, ptr %12, align 4, !tbaa !7
  %89 = load i32, ptr %12, align 4, !tbaa !7
  %90 = icmp eq i32 %89, -3
  br i1 %90, label %91, label %92

91:                                               ; preds = %65
  store i32 -16, ptr %5, align 4
  store i32 1, ptr %19, align 4
  br label %98

92:                                               ; preds = %65
  %93 = load i32, ptr %12, align 4, !tbaa !7
  %94 = icmp ne i32 %93, 0
  br i1 %94, label %95, label %97

95:                                               ; preds = %92
  %96 = load i32, ptr %12, align 4, !tbaa !7
  store i32 %96, ptr %5, align 4
  store i32 1, ptr %19, align 4
  br label %98

97:                                               ; preds = %92
  store i32 0, ptr %19, align 4
  br label %98

98:                                               ; preds = %97, %95, %91
  call void @llvm.lifetime.end.p0(i64 4, ptr %21) #7
  call void @llvm.lifetime.end.p0(i64 4, ptr %20) #7
  %99 = load i32, ptr %19, align 4
  switch i32 %99, label %105 [
    i32 0, label %100
  ]

100:                                              ; preds = %98
  br label %101

101:                                              ; preds = %100
  %102 = load i32, ptr %18, align 4, !tbaa !7
  %103 = add nsw i32 %102, 1
  store i32 %103, ptr %18, align 4, !tbaa !7
  br label %58, !llvm.loop !23

104:                                              ; preds = %58
  store i32 0, ptr %19, align 4
  br label %105

105:                                              ; preds = %104, %98, %55, %54, %43, %36
  call void @llvm.lifetime.end.p0(i64 4, ptr %18) #7
  call void @llvm.lifetime.end.p0(i64 4, ptr %17) #7
  call void @llvm.lifetime.end.p0(i64 4, ptr %16) #7
  call void @llvm.lifetime.end.p0(i64 8, ptr %15) #7
  call void @llvm.lifetime.end.p0(i64 8, ptr %14) #7
  call void @llvm.lifetime.end.p0(i64 8, ptr %13) #7
  %106 = load i32, ptr %19, align 4
  switch i32 %106, label %154 [
    i32 0, label %107
  ]

107:                                              ; preds = %105
  br label %108

108:                                              ; preds = %107
  %109 = load ptr, ptr %6, align 8, !tbaa !3
  %110 = load i32, ptr %10, align 4, !tbaa !7
  %111 = call i32 @fdt_next_property_offset(ptr noundef %109, i32 noundef %110)
  store i32 %111, ptr %10, align 4, !tbaa !7
  br label %27, !llvm.loop !24

112:                                              ; preds = %27
  %113 = load ptr, ptr %6, align 8, !tbaa !3
  %114 = load i32, ptr %8, align 4, !tbaa !7
  %115 = call i32 @fdt_first_subnode(ptr noundef %113, i32 noundef %114)
  store i32 %115, ptr %11, align 4, !tbaa !7
  br label %116

116:                                              ; preds = %149, %112
  %117 = load i32, ptr %11, align 4, !tbaa !7
  %118 = icmp sge i32 %117, 0
  br i1 %118, label %119, label %153

119:                                              ; preds = %116
  call void @llvm.lifetime.start.p0(i64 8, ptr %22) #7
  %120 = load ptr, ptr %6, align 8, !tbaa !3
  %121 = load i32, ptr %11, align 4, !tbaa !7
  %122 = call ptr @fdt_get_name(ptr noundef %120, i32 noundef %121, ptr noundef null)
  store ptr %122, ptr %22, align 8, !tbaa !12
  call void @llvm.lifetime.start.p0(i64 4, ptr %23) #7
  %123 = load ptr, ptr %6, align 8, !tbaa !3
  %124 = load i32, ptr %7, align 4, !tbaa !7
  %125 = load ptr, ptr %22, align 8, !tbaa !12
  %126 = call i32 @fdt_subnode_offset(ptr noundef %123, i32 noundef %124, ptr noundef %125)
  store i32 %126, ptr %23, align 4, !tbaa !7
  %127 = load i32, ptr %23, align 4, !tbaa !7
  %128 = icmp eq i32 %127, -1
  br i1 %128, label %129, label %130

129:                                              ; preds = %119
  store i32 -16, ptr %5, align 4
  store i32 1, ptr %19, align 4
  br label %146

130:                                              ; preds = %119
  %131 = load i32, ptr %23, align 4, !tbaa !7
  %132 = icmp slt i32 %131, 0
  br i1 %132, label %133, label %135

133:                                              ; preds = %130
  %134 = load i32, ptr %23, align 4, !tbaa !7
  store i32 %134, ptr %5, align 4
  store i32 1, ptr %19, align 4
  br label %146

135:                                              ; preds = %130
  %136 = load ptr, ptr %6, align 8, !tbaa !3
  %137 = load i32, ptr %23, align 4, !tbaa !7
  %138 = load i32, ptr %11, align 4, !tbaa !7
  %139 = load i32, ptr %9, align 4, !tbaa !7
  %140 = call i32 @overlay_update_local_node_references(ptr noundef %136, i32 noundef %137, i32 noundef %138, i32 noundef %139)
  store i32 %140, ptr %12, align 4, !tbaa !7
  %141 = load i32, ptr %12, align 4, !tbaa !7
  %142 = icmp ne i32 %141, 0
  br i1 %142, label %143, label %145

143:                                              ; preds = %135
  %144 = load i32, ptr %12, align 4, !tbaa !7
  store i32 %144, ptr %5, align 4
  store i32 1, ptr %19, align 4
  br label %146

145:                                              ; preds = %135
  store i32 0, ptr %19, align 4
  br label %146

146:                                              ; preds = %145, %143, %133, %129
  call void @llvm.lifetime.end.p0(i64 4, ptr %23) #7
  call void @llvm.lifetime.end.p0(i64 8, ptr %22) #7
  %147 = load i32, ptr %19, align 4
  switch i32 %147, label %154 [
    i32 0, label %148
  ]

148:                                              ; preds = %146
  br label %149

149:                                              ; preds = %148
  %150 = load ptr, ptr %6, align 8, !tbaa !3
  %151 = load i32, ptr %11, align 4, !tbaa !7
  %152 = call i32 @fdt_next_subnode(ptr noundef %150, i32 noundef %151)
  store i32 %152, ptr %11, align 4, !tbaa !7
  br label %116, !llvm.loop !25

153:                                              ; preds = %116
  store i32 0, ptr %5, align 4
  store i32 1, ptr %19, align 4
  br label %154

154:                                              ; preds = %153, %146, %105
  call void @llvm.lifetime.end.p0(i64 4, ptr %12) #7
  call void @llvm.lifetime.end.p0(i64 4, ptr %11) #7
  call void @llvm.lifetime.end.p0(i64 4, ptr %10) #7
  %155 = load i32, ptr %5, align 4
  ret i32 %155
}