; Function Attrs: nounwind uwtable
define internal fastcc i32 @overlay_update_local_node_references(ptr noundef %0, i32 noundef range(i32 0, -2147483648) %1, i32 noundef range(i32 0, -2147483648) %2, i32 noundef %3) unnamed_addr #0 {
  %5 = alloca ptr, align 8
  %6 = alloca i32, align 4
  %7 = alloca i32, align 4
  %8 = alloca i32, align 4
  %9 = tail call i32 @fdt_first_property_offset(ptr noundef %0, i32 noundef %2) #8
  %10 = icmp sgt i32 %9, -1
  br i1 %10, label %.lr.ph82, label %._crit_edge83

.lr.ph82:                                         ; preds = %4, %._crit_edge
  %.04880 = phi i32 [ %37, %._crit_edge ], [ %9, %4 ]
  call void @llvm.lifetime.start.p0(i64 8, ptr nonnull %5) #8
  call void @llvm.lifetime.start.p0(i64 4, ptr nonnull %6) #8
  call void @llvm.lifetime.start.p0(i64 4, ptr nonnull %7) #8
  %11 = call ptr @fdt_getprop_by_offset(ptr noundef %0, i32 noundef %.04880, ptr noundef nonnull %5, ptr noundef nonnull %6) #8
  %.not61 = icmp eq ptr %11, null
  %12 = load i32, ptr %6, align 4, !tbaa !3
  br i1 %.not61, label %.thread71, label %13

13:                                               ; preds = %.lr.ph82
  %14 = and i32 %12, 3
  %.not62 = icmp eq i32 %14, 0
  br i1 %.not62, label %15, label %.thread71

15:                                               ; preds = %13
  %16 = load ptr, ptr %5, align 8, !tbaa !8
  %17 = call ptr @fdt_getprop(ptr noundef %0, i32 noundef %1, ptr noundef %16, ptr noundef nonnull %7) #8
  %.not63 = icmp eq ptr %17, null
  br i1 %.not63, label %19, label %.preheader

.preheader:                                       ; preds = %15
  %18 = load i32, ptr %6, align 4, !tbaa !3
  %.not93 = icmp ult i32 %18, 4
  br i1 %.not93, label %._crit_edge, label %.lr.ph

19:                                               ; preds = %15
  %20 = load i32, ptr %7, align 4, !tbaa !3
  %21 = icmp eq i32 %20, -1
  %. = select i1 %21, i32 -16, i32 %20
  br label %.thread71

.lr.ph:                                           ; preds = %.preheader, %32
  %indvars.iv = phi i64 [ %indvars.iv.next, %32 ], [ 0, %.preheader ]
  call void @llvm.lifetime.start.p0(i64 4, ptr nonnull %8) #8
  %22 = getelementptr inbounds nuw i32, ptr %11, i64 %indvars.iv
  %23 = load i32, ptr %22, align 4, !tbaa !3
  %rev.i = call noundef i32 @llvm.bswap.i32(i32 %23)
  %24 = zext i32 %rev.i to i64
  %25 = getelementptr inbounds nuw i8, ptr %17, i64 %24
  %26 = load i32, ptr %25, align 1
  %rev.i66 = call noundef i32 @llvm.bswap.i32(i32 %26)
  %27 = add i32 %rev.i66, %3
  %rev.i67 = call noundef i32 @llvm.bswap.i32(i32 %27)
  store i32 %rev.i67, ptr %8, align 4, !tbaa !3
  %28 = load ptr, ptr %5, align 8, !tbaa !8
  %29 = call i64 @strlen(ptr noundef nonnull dereferenceable(1) %28) #9
  %30 = trunc i64 %29 to i32
  %31 = call i32 @fdt_setprop_inplace_namelen_partial(ptr noundef %0, i32 noundef %1, ptr noundef nonnull %28, i32 noundef %30, i32 noundef %rev.i, ptr noundef nonnull %8, i32 noundef 4) #8
  switch i32 %31, label %.thread [
    i32 -3, label %.thread.loopexit
    i32 0, label %32
  ]

.thread.loopexit:                                 ; preds = %.lr.ph
  br label %.thread

.thread:                                          ; preds = %.lr.ph, %.thread.loopexit
  %.3.ph = phi i32 [ -16, %.thread.loopexit ], [ %31, %.lr.ph ]
  call void @llvm.lifetime.end.p0(i64 4, ptr nonnull %8) #8
  br label %.thread71

32:                                               ; preds = %.lr.ph
  call void @llvm.lifetime.end.p0(i64 4, ptr nonnull %8) #8
  %indvars.iv.next = add nuw nsw i64 %indvars.iv, 1
  %33 = load i32, ptr %6, align 4, !tbaa !3
  %34 = sext i32 %33 to i64
  %35 = lshr i64 %34, 2
  %36 = icmp samesign ugt i64 %35, %indvars.iv.next
  br i1 %36, label %.lr.ph, label %._crit_edge, !llvm.loop !20

.thread71:                                        ; preds = %13, %.lr.ph82, %19, %.thread
  %.1.ph = phi i32 [ %.3.ph, %.thread ], [ %., %19 ], [ %12, %.lr.ph82 ], [ -16, %13 ]
  call void @llvm.lifetime.end.p0(i64 4, ptr nonnull %7) #8
  call void @llvm.lifetime.end.p0(i64 4, ptr nonnull %6) #8
  call void @llvm.lifetime.end.p0(i64 8, ptr nonnull %5) #8
  br label %.thread75

._crit_edge:                                      ; preds = %32, %.preheader
  call void @llvm.lifetime.end.p0(i64 4, ptr nonnull %7) #8
  call void @llvm.lifetime.end.p0(i64 4, ptr nonnull %6) #8
  call void @llvm.lifetime.end.p0(i64 8, ptr nonnull %5) #8
  %37 = call i32 @fdt_next_property_offset(ptr noundef %0, i32 noundef %.04880) #8
  %38 = icmp sgt i32 %37, -1
  br i1 %38, label %.lr.ph82, label %._crit_edge83, !llvm.loop !21

._crit_edge83:                                    ; preds = %._crit_edge, %4
  %39 = call i32 @fdt_first_subnode(ptr noundef %0, i32 noundef %2) #8
  %40 = icmp sgt i32 %39, -1
  br i1 %40, label %.lr.ph86, label %.thread75

.lr.ph86:                                         ; preds = %._crit_edge83, %48
  %.04984 = phi i32 [ %49, %48 ], [ %39, %._crit_edge83 ]
  %41 = call ptr @fdt_get_name(ptr noundef %0, i32 noundef %.04984, ptr noundef null) #8
  %42 = call i32 @fdt_subnode_offset(ptr noundef %0, i32 noundef %1, ptr noundef %41) #8
  %43 = icmp eq i32 %42, -1
  br i1 %43, label %.thread75, label %44

44:                                               ; preds = %.lr.ph86
  %45 = icmp slt i32 %42, 0
  br i1 %45, label %.thread75, label %46

46:                                               ; preds = %44
  %47 = call fastcc i32 @overlay_update_local_node_references(ptr noundef %0, i32 noundef %42, i32 noundef %.04984, i32 noundef %3)
  %.not = icmp eq i32 %47, 0
  br i1 %.not, label %48, label %.thread75

48:                                               ; preds = %46
  %49 = call i32 @fdt_next_subnode(ptr noundef %0, i32 noundef %.04984) #8
  %50 = icmp sgt i32 %49, -1
  br i1 %50, label %.lr.ph86, label %.thread75, !llvm.loop !22

.thread75:                                        ; preds = %46, %48, %.lr.ph86, %44, %._crit_edge83, %.thread71
  %.4 = phi i32 [ %.1.ph, %.thread71 ], [ 0, %._crit_edge83 ], [ %47, %46 ], [ 0, %48 ], [ -16, %.lr.ph86 ], [ %42, %44 ]
  ret i32 %.4
}